target datalayout = "e-m:e-p270:32:32-p271:32:32-p272:64:64-i64:64-i128:128-f80:128-n8:16:32:64-S128"
target triple = "x86_64-pc-linux-gnu"

%struct.H5FD_splitter_fapl_t = type { i64, i64, [4097 x i8], [4097 x i8], i8 }
%struct.H5FD_splitter_t = type { %struct.H5FD_t, i32, %struct.H5FD_splitter_fapl_t, ptr, ptr, ptr }
%struct.H5FD_t = type { i64, ptr, i64, i32, i64, i64, i64, i64, i64, i8 }

@H5FD_init_g = external global i8, align 1
@H5_libterm_g = external global i8, align 1
@.str = private unnamed_addr constant [106 x i8] c"generated/home/dtcxzyw/WorkSpace/Projects/compilers/llvm-opt-benchmark/bench/hdf5/hdf5/src/H5FDsplitter.c\00", align 1
@H5E_VFL_g = external global i64, align 8
@H5E_ARGS_g = external global i64, align 8
@H5E_BADVALUE_g = external global i64, align 8
@H5E_OVERFLOW_g = external global i64, align 8
@__func__.H5FD__splitter_read = private unnamed_addr constant [20 x i8] c"H5FD__splitter_read\00", align 1
@.str.56 = private unnamed_addr constant [28 x i8] c"addr undefined, addr = %llu\00", align 1
@.str.57 = private unnamed_addr constant [27 x i8] c"addr overflow, addr = %llu\00", align 1
@H5E_READERROR_g = external global i64, align 8
@.str.58 = private unnamed_addr constant [32 x i8] c"Reading from R/W channel failed\00", align 1

; Function Attrs: nounwind uwtable
define internal i32 @H5FD__splitter_read(ptr noundef %0, i32 noundef %1, i64 noundef %2, i64 noundef %3, i64 noundef %4, ptr noundef %5) #0 {
  %7 = alloca ptr, align 8
  %8 = alloca i32, align 4
  %9 = alloca i64, align 8
  %10 = alloca i64, align 8
  %11 = alloca i64, align 8
  %12 = alloca ptr, align 8
  %13 = alloca ptr, align 8
  %14 = alloca i32, align 4
  %15 = alloca i8, align 1
  store ptr %0, ptr %7, align 8, !tbaa !38
  store i32 %1, ptr %8, align 4, !tbaa !3
  store i64 %2, ptr %9, align 8, !tbaa !11
  store i64 %3, ptr %10, align 8, !tbaa !11
  store i64 %4, ptr %11, align 8, !tbaa !11
  store ptr %5, ptr %12, align 8, !tbaa !47
  call void @llvm.lifetime.start.p0(i64 8, ptr %13) #10
  %16 = load ptr, ptr %7, align 8, !tbaa !38
  store ptr %16, ptr %13, align 8, !tbaa !40
  call void @llvm.lifetime.start.p0(i64 4, ptr %14) #10
  store i32 0, ptr %14, align 4, !tbaa !3
  call void @llvm.lifetime.start.p0(i64 1, ptr %15) #10
  store i8 0, ptr %15, align 1, !tbaa !7
  %17 = load i8, ptr @H5FD_init_g, align 1, !tbaa !7, !range !9, !noundef !10
  %18 = trunc i8 %17 to i1
  br i1 %18, label %23, label %19

19:                                               ; preds = %6
  %20 = load i8, ptr @H5_libterm_g, align 1, !tbaa !7, !range !9, !noundef !10
  %21 = trunc i8 %20 to i1
  %22 = xor i1 %21, true
  br label %23

23:                                               ; preds = %19, %6
  %24 = phi i1 [ true, %6 ], [ %22, %19 ]
  %25 = xor i1 %24, true
  %26 = xor i1 %25, true
  %27 = zext i1 %26 to i32
  %28 = sext i32 %27 to i64
  %29 = call i64 @llvm.expect.i64(i64 %28, i64 1)
  %30 = icmp ne i64 %29, 0
  br i1 %30, label %31, label %128

31:                                               ; preds = %23
  %32 = load i64, ptr %10, align 8, !tbaa !11
  %33 = icmp ne i64 %32, -1
  br i1 %33, label %54, label %34

34:                                               ; preds = %31
  br label %35

35:                                               ; preds = %34
  br label %36

36:                                               ; preds = %35
  br label %37

37:                                               ; preds = %36
  %38 = load i64, ptr @H5E_ARGS_g, align 8, !tbaa !11
  %39 = load i64, ptr @H5E_BADVALUE_g, align 8, !tbaa !11
  %40 = load i64, ptr %10, align 8, !tbaa !11
  %41 = call i32 (ptr, ptr, i32, i64, i64, ptr, ...) @H5E_printf_stack(ptr noundef @.str, ptr noundef @__func__.H5FD__splitter_read, i32 noundef 596, i64 noundef %38, i64 noundef %39, ptr noundef @.str.56, i64 noundef %40)
  br label %42

42:                                               ; preds = %37
  br label %43

43:                                               ; preds = %42
  store i8 1, ptr %15, align 1, !tbaa !7
  %44 = load i8, ptr %15, align 1, !tbaa !7, !range !9, !noundef !10
  %45 = trunc i8 %44 to i1
  %46 = zext i1 %45 to i8
  store i8 %46, ptr %15, align 1, !tbaa !7
  br label %47

47:                                               ; preds = %43
  br label %48

48:                                               ; preds = %47
  br label %49

49:                                               ; preds = %48
  store i32 -1, ptr %14, align 4, !tbaa !3
  br label %127

50:                                               ; No predecessors!
  br label %51

51:                                               ; preds = %50
  br label %52

52:                                               ; preds = %51
  br label %53

53:                                               ; preds = %52
  br label %54

54:                                               ; preds = %53, %31
  %55 = load i64, ptr %10, align 8, !tbaa !11
  %56 = icmp eq i64 -1, %55
  br i1 %56, label %76, label %57

57:                                               ; preds = %54
  %58 = load i64, ptr %10, align 8, !tbaa !11
  %59 = and i64 %58, -9223372036854775808
  %60 = icmp ne i64 %59, 0
  br i1 %60, label %76, label %61

61:                                               ; preds = %57
  %62 = load i64, ptr %11, align 8, !tbaa !11
  %63 = and i64 %62, -9223372036854775808
  %64 = icmp ne i64 %63, 0
  br i1 %64, label %76, label %65

65:                                               ; preds = %61
  %66 = load i64, ptr %10, align 8, !tbaa !11
  %67 = load i64, ptr %11, align 8, !tbaa !11
  %68 = add i64 %66, %67
  %69 = icmp eq i64 -1, %68
  br i1 %69, label %76, label %70

70:                                               ; preds = %65
  %71 = load i64, ptr %10, align 8, !tbaa !11
  %72 = load i64, ptr %11, align 8, !tbaa !11
  %73 = add i64 %71, %72
  %74 = load i64, ptr %10, align 8, !tbaa !11
  %75 = icmp slt i64 %73, %74
  br i1 %75, label %76, label %96

76:                                               ; preds = %70, %65, %61, %57, %54
  br label %77

77:                                               ; preds = %76
  br label %78

78:                                               ; preds = %77
  br label %79

79:                                               ; preds = %78
  %80 = load i64, ptr @H5E_ARGS_g, align 8, !tbaa !11
  %81 = load i64, ptr @H5E_OVERFLOW_g, align 8, !tbaa !11
  %82 = load i64, ptr %10, align 8, !tbaa !11
  %83 = call i32 (ptr, ptr, i32, i64, i64, ptr, ...) @H5E_printf_stack(ptr noundef @.str, ptr noundef @__func__.H5FD__splitter_read, i32 noundef 598, i64 noundef %80, i64 noundef %81, ptr noundef @.str.57, i64 noundef %82)
  br label %84

84:                                               ; preds = %79
  br label %85

85:                                               ; preds = %84
  store i8 1, ptr %15, align 1, !tbaa !7
  %86 = load i8, ptr %15, align 1, !tbaa !7, !range !9, !noundef !10
  %87 = trunc i8 %86 to i1
  %88 = zext i1 %87 to i8
  store i8 %88, ptr %15, align 1, !tbaa !7
  br label %89

89:                                               ; preds = %85
  br label %90

90:                                               ; preds = %89
  br label %91

91:                                               ; preds = %90
  store i32 -1, ptr %14, align 4, !tbaa !3
  br label %127

92:                                               ; No predecessors!
  br label %93

93:                                               ; preds = %92
  br label %94

94:                                               ; preds = %93
  br label %95

95:                                               ; preds = %94
  br label %96

96:                                               ; preds = %95, %70
  %97 = load ptr, ptr %13, align 8, !tbaa !40
  %98 = getelementptr inbounds nuw %struct.H5FD_splitter_t, ptr %97, i32 0, i32 3
  %99 = load ptr, ptr %98, align 8, !tbaa !42
  %100 = load i32, ptr %8, align 4, !tbaa !3
  %101 = load i64, ptr %9, align 8, !tbaa !11
  %102 = load i64, ptr %10, align 8, !tbaa !11
  %103 = load i64, ptr %11, align 8, !tbaa !11
  %104 = load ptr, ptr %12, align 8, !tbaa !47
  %105 = call i32 @H5FDread(ptr noundef %99, i32 noundef %100, i64 noundef %101, i64 noundef %102, i64 noundef %103, ptr noundef %104)
  %106 = icmp slt i32 %105, 0
  br i1 %106, label %107, label %126

107:                                              ; preds = %96
  br label %108

108:                                              ; preds = %107
  br label %109

109:                                              ; preds = %108
  br label %110

110:                                              ; preds = %109
  %111 = load i64, ptr @H5E_VFL_g, align 8, !tbaa !11
  %112 = load i64, ptr @H5E_READERROR_g, align 8, !tbaa !11
  %113 = call i32 (ptr, ptr, i32, i64, i64, ptr, ...) @H5E_printf_stack(ptr noundef @.str, ptr noundef @__func__.H5FD__splitter_read, i32 noundef 603, i64 noundef %111, i64 noundef %112, ptr noundef @.str.58)
  br label %114

114:                                              ; preds = %110
  br label %115

115:                                              ; preds = %114
  store i8 1, ptr %15, align 1, !tbaa !7
  %116 = load i8, ptr %15, align 1, !tbaa !7, !range !9, !noundef !10
  %117 = trunc i8 %116 to i1
  %118 = zext i1 %117 to i8
  store i8 %118, ptr %15, align 1, !tbaa !7
  br label %119

119:                                              ; preds = %115
  br label %120

120:                                              ; preds = %119
  br label %121

121:                                              ; preds = %120
  store i32 -1, ptr %14, align 4, !tbaa !3
  br label %127

122:                                              ; No predecessors!
  br label %123

123:                                              ; preds = %122
  br label %124

124:                                              ; preds = %123
  br label %125

125:                                              ; preds = %124
  br label %126

126:                                              ; preds = %125, %96
  br label %127

127:                                              ; preds = %126, %121, %91, %49
  br label %128

128:                                              ; preds = %127, %23
  %129 = load i32, ptr %14, align 4, !tbaa !3
  call void @llvm.lifetime.end.p0(i64 1, ptr %15) #10
  call void @llvm.lifetime.end.p0(i64 4, ptr %14) #10
  call void @llvm.lifetime.end.p0(i64 8, ptr %13) #10
  ret i32 %129
}