; Function Attrs: nounwind uwtable
define internal range(i32 -1, 1) i32 @H5FD__splitter_read(ptr noundef readonly captures(none) %0, i32 noundef %1, i64 noundef %2, i64 noundef %3, i64 noundef %4, ptr noundef %5) #0 {
  %7 = load i8, ptr @H5FD_init_g, align 1, !tbaa !3, !range !7, !noundef !8
  %8 = trunc nuw i8 %7 to i1
  %9 = load i8, ptr @H5_libterm_g, align 1, !range !7
  %10 = trunc nuw i8 %9 to i1
  %11 = xor i1 %10, true
  %12 = select i1 %8, i1 true, i1 %11
  br i1 %12, label %13, label %35, !prof !9

13:                                               ; preds = %6
  %.not = icmp eq i64 %3, -1
  br i1 %.not, label %14, label %18

14:                                               ; preds = %13
  %15 = load i64, ptr @H5E_ARGS_g, align 8, !tbaa !10
  %16 = load i64, ptr @H5E_BADVALUE_g, align 8, !tbaa !10
  %17 = tail call i32 (ptr, ptr, i32, i64, i64, ptr, ...) @H5E_printf_stack(ptr noundef nonnull @.str, ptr noundef nonnull @__func__.H5FD__splitter_read, i32 noundef 596, i64 noundef %15, i64 noundef %16, ptr noundef nonnull @.str.56, i64 noundef -1) #12
  br label %35

18:                                               ; preds = %13
  %19 = or i64 %4, %3
  %or.cond = icmp slt i64 %19, 0
  %20 = add nuw i64 %4, %3
  %21 = icmp slt i64 %20, %3
  %or.cond27 = select i1 %or.cond, i1 true, i1 %21
  br i1 %or.cond27, label %22, label %26

22:                                               ; preds = %18
  %23 = load i64, ptr @H5E_ARGS_g, align 8, !tbaa !10
  %24 = load i64, ptr @H5E_OVERFLOW_g, align 8, !tbaa !10
  %25 = tail call i32 (ptr, ptr, i32, i64, i64, ptr, ...) @H5E_printf_stack(ptr noundef nonnull @.str, ptr noundef nonnull @__func__.H5FD__splitter_read, i32 noundef 598, i64 noundef %23, i64 noundef %24, ptr noundef nonnull @.str.57, i64 noundef %3) #12
  br label %35

26:                                               ; preds = %18
  %27 = getelementptr inbounds nuw i8, ptr %0, i64 8304
  %28 = load ptr, ptr %27, align 8, !tbaa !33
  %29 = tail call i32 @H5FDread(ptr noundef %28, i32 noundef %1, i64 noundef %2, i64 noundef %3, i64 noundef %4, ptr noundef %5) #12
  %30 = icmp slt i32 %29, 0
  br i1 %30, label %31, label %35

31:                                               ; preds = %26
  %32 = load i64, ptr @H5E_VFL_g, align 8, !tbaa !10
  %33 = load i64, ptr @H5E_READERROR_g, align 8, !tbaa !10
  %34 = tail call i32 (ptr, ptr, i32, i64, i64, ptr, ...) @H5E_printf_stack(ptr noundef nonnull @.str, ptr noundef nonnull @__func__.H5FD__splitter_read, i32 noundef 603, i64 noundef %32, i64 noundef %33, ptr noundef nonnull @.str.58) #12
  br label %35

35:                                               ; preds = %14, %22, %31, %26, %6
  %.0 = phi i32 [ -1, %22 ], [ -1, %31 ], [ 0, %26 ], [ -1, %14 ], [ 0, %6 ]
  ret i32 %.0
}